; Function Attrs: mustprogress uwtable
define internal fastcc noundef ptr @_ZSt22__uninitialized_copy_aIPKZN25cmBinUtilsWindowsPELinker16ScanDependenciesERKNSt7__cxx1112basic_stringIcSt11char_traitsIcESaIcEEEN12cmStateEnums10TargetTypeEE15WinPEDependencyPSB_SB_ET0_T_SG_SF_RSaIT1_E(ptr noundef %0, ptr noundef readnone %1, ptr noundef %2) unnamed_addr #3 personality ptr @__gxx_personality_v0 {
  %.not16.i.i.i = icmp eq ptr %0, %1
  br i1 %.not16.i.i.i, label %_ZSt18uninitialized_copyIPKZN25cmBinUtilsWindowsPELinker16ScanDependenciesERKNSt7__cxx1112basic_stringIcSt11char_traitsIcESaIcEEEN12cmStateEnums10TargetTypeEE15WinPEDependencyPSB_ET0_T_SG_SF_.exit, label %.lr.ph.i.i.i

.lr.ph.i.i.i:                                     ; preds = %3, %_ZSt10_ConstructIZN25cmBinUtilsWindowsPELinker16ScanDependenciesERKNSt7__cxx1112basic_stringIcSt11char_traitsIcESaIcEEEN12cmStateEnums10TargetTypeEE15WinPEDependencyJRKSB_EEvPT_DpOT0_.exit.i.i.i
  %.018.i.i.i = phi ptr [ %9, %_ZSt10_ConstructIZN25cmBinUtilsWindowsPELinker16ScanDependenciesERKNSt7__cxx1112basic_stringIcSt11char_traitsIcESaIcEEEN12cmStateEnums10TargetTypeEE15WinPEDependencyJRKSB_EEvPT_DpOT0_.exit.i.i.i ], [ %2, %3 ]
  %.01217.i.i.i = phi ptr [ %8, %_ZSt10_ConstructIZN25cmBinUtilsWindowsPELinker16ScanDependenciesERKNSt7__cxx1112basic_stringIcSt11char_traitsIcESaIcEEEN12cmStateEnums10TargetTypeEE15WinPEDependencyJRKSB_EEvPT_DpOT0_.exit.i.i.i ], [ %0, %3 ]
  invoke void @_ZNSt7__cxx1112basic_stringIcSt11char_traitsIcESaIcEEC1ERKS4_(ptr noundef nonnull align 8 dereferenceable(32) %.018.i.i.i, ptr noundef nonnull align 8 dereferenceable(32) %.01217.i.i.i)
          to label %.noexc.i.i.i unwind label %10

.noexc.i.i.i:                                     ; preds = %.lr.ph.i.i.i
  %4 = getelementptr inbounds i8, ptr %.018.i.i.i, i64 32
  %5 = getelementptr inbounds i8, ptr %.01217.i.i.i, i64 32
  invoke void @_ZNSt7__cxx1112basic_stringIcSt11char_traitsIcESaIcEEC1ERKS4_(ptr noundef nonnull align 8 dereferenceable(32) %4, ptr noundef nonnull align 8 dereferenceable(32) %5)
          to label %_ZSt10_ConstructIZN25cmBinUtilsWindowsPELinker16ScanDependenciesERKNSt7__cxx1112basic_stringIcSt11char_traitsIcESaIcEEEN12cmStateEnums10TargetTypeEE15WinPEDependencyJRKSB_EEvPT_DpOT0_.exit.i.i.i unwind label %6

6:                                                ; preds = %.noexc.i.i.i
  %7 = landingpad { ptr, i32 }
          catch ptr null
  tail call void @_ZNSt7__cxx1112basic_stringIcSt11char_traitsIcESaIcEED1Ev(ptr noundef nonnull align 8 dereferenceable(32) %.018.i.i.i) #13
  br label %.body.i.i.i

_ZSt10_ConstructIZN25cmBinUtilsWindowsPELinker16ScanDependenciesERKNSt7__cxx1112basic_stringIcSt11char_traitsIcESaIcEEEN12cmStateEnums10TargetTypeEE15WinPEDependencyJRKSB_EEvPT_DpOT0_.exit.i.i.i: ; preds = %.noexc.i.i.i
  %8 = getelementptr inbounds i8, ptr %.01217.i.i.i, i64 64
  %9 = getelementptr inbounds i8, ptr %.018.i.i.i, i64 64
  %.not.i.i.i = icmp eq ptr %8, %1
  br i1 %.not.i.i.i, label %_ZSt18uninitialized_copyIPKZN25cmBinUtilsWindowsPELinker16ScanDependenciesERKNSt7__cxx1112basic_stringIcSt11char_traitsIcESaIcEEEN12cmStateEnums10TargetTypeEE15WinPEDependencyPSB_ET0_T_SG_SF_.exit, label %.lr.ph.i.i.i, !llvm.loop !29

10:                                               ; preds = %.lr.ph.i.i.i
  %11 = landingpad { ptr, i32 }
          catch ptr null
  br label %.body.i.i.i

.body.i.i.i:                                      ; preds = %10, %6
  %eh.lpad-body.i.i.i = phi { ptr, i32 } [ %11, %10 ], [ %7, %6 ]
  %12 = extractvalue { ptr, i32 } %eh.lpad-body.i.i.i, 0
  %13 = tail call ptr @__cxa_begin_catch(ptr %12) #13
  tail call fastcc void @_ZSt8_DestroyIPZN25cmBinUtilsWindowsPELinker16ScanDependenciesERKNSt7__cxx1112basic_stringIcSt11char_traitsIcESaIcEEEN12cmStateEnums10TargetTypeEE15WinPEDependencyEvT_SD_(ptr noundef %2, ptr noundef %.018.i.i.i)
  invoke void @__cxa_rethrow() #16
          to label %20 unwind label %14

14:                                               ; preds = %.body.i.i.i
  %15 = landingpad { ptr, i32 }
          cleanup
  invoke void @__cxa_end_catch()
          to label %16 unwind label %17

16:                                               ; preds = %14
  resume { ptr, i32 } %15

17:                                               ; preds = %14
  %18 = landingpad { ptr, i32 }
          catch ptr null
  %19 = extractvalue { ptr, i32 } %18, 0
  tail call void @__clang_call_terminate(ptr %19) #17
  unreachable

20:                                               ; preds = %.body.i.i.i
  unreachable

_ZSt18uninitialized_copyIPKZN25cmBinUtilsWindowsPELinker16ScanDependenciesERKNSt7__cxx1112basic_stringIcSt11char_traitsIcESaIcEEEN12cmStateEnums10TargetTypeEE15WinPEDependencyPSB_ET0_T_SG_SF_.exit: ; preds = %_ZSt10_ConstructIZN25cmBinUtilsWindowsPELinker16ScanDependenciesERKNSt7__cxx1112basic_stringIcSt11char_traitsIcESaIcEEEN12cmStateEnums10TargetTypeEE15WinPEDependencyJRKSB_EEvPT_DpOT0_.exit.i.i.i, %3
  %.0.lcssa.i.i.i = phi ptr [ %2, %3 ], [ %9, %_ZSt10_ConstructIZN25cmBinUtilsWindowsPELinker16ScanDependenciesERKNSt7__cxx1112basic_stringIcSt11char_traitsIcESaIcEEEN12cmStateEnums10TargetTypeEE15WinPEDependencyJRKSB_EEvPT_DpOT0_.exit.i.i.i ]
  ret ptr %.0.lcssa.i.i.i
}